; Function Attrs: mustprogress nounwind uwtable
define void @_ZN25FilterImgPatchParamPluginD0Ev(ptr noundef nonnull align 8 dereferenceable(88) %0) unnamed_addr #4 align 2 {
  tail call void @_ZN25FilterImgPatchParamPluginD2Ev(ptr noundef nonnull align 8 dereferenceable(88) %0, ptr noundef nonnull @_ZTT25FilterImgPatchParamPlugin) #27
  %2 = getelementptr inbounds i8, ptr %0, i64 88
  store ptr getelementptr inbounds ({ [7 x ptr] }, ptr @_ZTV13MeshLabPlugin, i64 0, i32 0, i64 2), ptr %2, align 8
  %3 = getelementptr inbounds i8, ptr %0, i64 104
  tail call void @_ZN9QFileInfoD1Ev(ptr noundef nonnull align 8 dereferenceable(8) %3) #27
  tail call void @_ZdlPv(ptr noundef nonnull %0) #26
  ret void
}